; Function Attrs: mustprogress nofree norecurse nosync nounwind willreturn memory(argmem: write) uwtable
define void @_ZN8facebook5velox10expression9calculate6Parser7by_kindC2ENS3_5token15token_kind_typeE(ptr nocapture noundef nonnull writeonly align 4 dereferenceable(4) %this, i32 noundef %t) unnamed_addr #5 align 2 {
entry:
  %cmp.i = icmp slt i32 %t, 1
  br i1 %cmp.i, label %_ZN8facebook5velox10expression9calculate6Parser12yytranslate_Ei.exit, label %if.else.i

if.else.i:                                        ; preds = %entry
  %cmp1.i = icmp ult i32 %t, 280
  br i1 %cmp1.i, label %if.then2.i, label %_ZN8facebook5velox10expression9calculate6Parser12yytranslate_Ei.exit

if.then2.i:                                       ; preds = %if.else.i
  %idxprom.i = zext nneg i32 %t to i64
  %arrayidx.i = getelementptr inbounds [280 x i8], ptr @_ZZN8facebook5velox10expression9calculate6Parser12yytranslate_EiE15translate_table, i64 0, i64 %idxprom.i
  %0 = load i8, ptr %arrayidx.i, align 1
  %conv.i = sext i8 %0 to i32
  br label %_ZN8facebook5velox10expression9calculate6Parser12yytranslate_Ei.exit

_ZN8facebook5velox10expression9calculate6Parser12yytranslate_Ei.exit: ; preds = %entry, %if.else.i, %if.then2.i
  %retval.0.i = phi i32 [ %conv.i, %if.then2.i ], [ 0, %entry ], [ 2, %if.else.i ]
  store i32 %retval.0.i, ptr %this, align 4
  ret void
}